; Function Attrs: mustprogress nounwind uwtable
define noundef ptr @WasmEdge_PluginCreateModule(ptr noundef %0, i32 %1, ptr %2) local_unnamed_addr #10 personality ptr @__gxx_personality_v0 {
  %.not = icmp eq ptr %0, null
  br i1 %.not, label %11, label %4

4:                                                ; preds = %3
  %5 = zext i32 %1 to i64
  %6 = tail call noundef ptr @_ZNK8WasmEdge6Plugin6Plugin10findModuleESt17basic_string_viewIcSt11char_traitsIcEE(ptr noundef nonnull align 8 dereferenceable(224) %0, i64 %5, ptr %2) #37
  %.not12 = icmp eq ptr %6, null
  br i1 %.not12, label %11, label %_ZNSt10unique_ptrIN8WasmEdge7Runtime8Instance14ModuleInstanceESt14default_deleteIS3_EED2Ev.exit

_ZNSt10unique_ptrIN8WasmEdge7Runtime8Instance14ModuleInstanceESt14default_deleteIS3_EED2Ev.exit: ; preds = %4
  %7 = load ptr, ptr %6, align 8, !noalias !277, !nonnull !158, !noundef !158
  %8 = getelementptr inbounds i8, ptr %7, i64 16
  %9 = load ptr, ptr %8, align 8, !noalias !277
  %10 = tail call noundef ptr %9(ptr noundef nonnull %7) #37, !noalias !277
  br label %11

11:                                               ; preds = %3, %4, %_ZNSt10unique_ptrIN8WasmEdge7Runtime8Instance14ModuleInstanceESt14default_deleteIS3_EED2Ev.exit
  %.0 = phi ptr [ %10, %_ZNSt10unique_ptrIN8WasmEdge7Runtime8Instance14ModuleInstanceESt14default_deleteIS3_EED2Ev.exit ], [ null, %4 ], [ null, %3 ]
  ret ptr %.0
}